target datalayout = "e-m:e-p270:32:32-p271:32:32-p272:64:64-i64:64-i128:128-f80:128-n8:16:32:64-S128"
target triple = "x86_64-pc-linux-gnu"

@.str = private unnamed_addr constant [124 x i8] c"generated/home/dtcxzyw/WorkSpace/Projects/compilers/llvm-opt-benchmark/bench/libquic/libquic/boringssl/crypto/x509/t_x509.c\00", align 1

; Function Attrs: nounwind uwtable
define hidden i32 @X509_print_ex_fp(ptr noundef %0, ptr noundef %1, i64 noundef %2, i64 noundef %3) #0 {
  %5 = alloca i32, align 4
  %6 = alloca ptr, align 8
  %7 = alloca ptr, align 8
  %8 = alloca i64, align 8
  %9 = alloca i64, align 8
  %10 = alloca ptr, align 8
  %11 = alloca i32, align 4
  %12 = alloca i32, align 4
  store ptr %0, ptr %6, align 8, !tbaa !6
  store ptr %1, ptr %7, align 8, !tbaa !11
  store i64 %2, ptr %8, align 8, !tbaa !13
  store i64 %3, ptr %9, align 8, !tbaa !13
  call void @llvm.lifetime.start.p0(i64 8, ptr %10) #5
  call void @llvm.lifetime.start.p0(i64 4, ptr %11) #5
  %13 = call ptr @BIO_s_file()
  %14 = call ptr @BIO_new(ptr noundef %13)
  store ptr %14, ptr %10, align 8, !tbaa !15
  %15 = icmp eq ptr %14, null
  br i1 %15, label %16, label %17

16:                                               ; preds = %4
  call void @ERR_put_error(i32 noundef 11, i32 noundef 0, i32 noundef 7, ptr noundef @.str, i32 noundef 78)
  store i32 0, ptr %5, align 4
  store i32 1, ptr %12, align 4
  br label %29

17:                                               ; preds = %4
  %18 = load ptr, ptr %10, align 8, !tbaa !15
  %19 = load ptr, ptr %6, align 8, !tbaa !6
  %20 = call i32 @BIO_set_fp(ptr noundef %18, ptr noundef %19, i32 noundef 0)
  %21 = load ptr, ptr %10, align 8, !tbaa !15
  %22 = load ptr, ptr %7, align 8, !tbaa !11
  %23 = load i64, ptr %8, align 8, !tbaa !13
  %24 = load i64, ptr %9, align 8, !tbaa !13
  %25 = call i32 @X509_print_ex(ptr noundef %21, ptr noundef %22, i64 noundef %23, i64 noundef %24)
  store i32 %25, ptr %11, align 4, !tbaa !17
  %26 = load ptr, ptr %10, align 8, !tbaa !15
  %27 = call i32 @BIO_free(ptr noundef %26)
  %28 = load i32, ptr %11, align 4, !tbaa !17
  store i32 %28, ptr %5, align 4
  store i32 1, ptr %12, align 4
  br label %29

29:                                               ; preds = %17, %16
  call void @llvm.lifetime.end.p0(i64 4, ptr %11) #5
  call void @llvm.lifetime.end.p0(i64 8, ptr %10) #5
  %30 = load i32, ptr %5, align 4
  ret i32 %30
}

; Function Attrs: nounwind uwtable
define hidden i32 @X509_print_fp(ptr noundef %0, ptr noundef %1) #0 {
  %3 = alloca ptr, align 8
  %4 = alloca ptr, align 8
  store ptr %0, ptr %3, align 8, !tbaa !6
  store ptr %1, ptr %4, align 8, !tbaa !11
  %5 = load ptr, ptr %3, align 8, !tbaa !6
  %6 = load ptr, ptr %4, align 8, !tbaa !11
  %7 = call i32 @X509_print_ex_fp(ptr noundef %5, ptr noundef %6, i64 noundef 0, i64 noundef 0)
  ret i32 %7
}