; Function Attrs: nounwind uwtable
define hidden range(i32 0, 2) i32 @X509_print_fp(ptr noundef %0, ptr noundef %1) local_unnamed_addr #0 {
  %3 = tail call ptr @BIO_s_file() #5
  %4 = tail call ptr @BIO_new(ptr noundef %3) #5
  %5 = icmp eq ptr %4, null
  br i1 %5, label %6, label %7

6:                                                ; preds = %2
  tail call void @ERR_put_error(i32 noundef 11, i32 noundef 0, i32 noundef 7, ptr noundef nonnull @.str, i32 noundef 78) #5
  br label %X509_print_ex_fp.exit

7:                                                ; preds = %2
  %8 = tail call i32 @BIO_set_fp(ptr noundef nonnull %4, ptr noundef %0, i32 noundef 0) #5
  %9 = tail call i32 @X509_print_ex(ptr noundef nonnull %4, ptr noundef %1, i64 noundef 0, i64 noundef 0)
  %10 = tail call i32 @BIO_free(ptr noundef nonnull %4) #5
  br label %X509_print_ex_fp.exit

X509_print_ex_fp.exit:                            ; preds = %6, %7
  %.0.i = phi i32 [ 0, %6 ], [ %9, %7 ]
  ret i32 %.0.i
}